; Function Attrs: nounwind uwtable
define i32 @Jf_CutAreaRef_rec(ptr noundef readonly captures(none) %0, ptr noundef readonly captures(none) %1) local_unnamed_addr #0 {
  %.val23 = load i32, ptr %1, align 4, !tbaa !14
  %3 = lshr i32 %.val23, 4
  %4 = and i32 %3, 15
  %5 = and i32 %.val23, 15
  %.not30 = icmp eq i32 %5, 0
  br i1 %.not30, label %.critedge, label %.lr.ph

.lr.ph:                                           ; preds = %2
  %6 = getelementptr inbounds nuw i8, ptr %0, i64 120
  %7 = getelementptr i8, ptr %0, i64 48
  %8 = getelementptr inbounds nuw i8, ptr %0, i64 144
  %9 = getelementptr i8, ptr %0, i64 124
  %10 = getelementptr inbounds nuw i8, ptr %0, i64 152
  br label %11

11:                                               ; preds = %.lr.ph, %Vec_IntPush.exit
  %indvars.iv = phi i64 [ 1, %.lr.ph ], [ %indvars.iv.next, %Vec_IntPush.exit ]
  %.032 = phi i32 [ %4, %.lr.ph ], [ %.1, %Vec_IntPush.exit ]
  %12 = getelementptr inbounds nuw i32, ptr %1, i64 %indvars.iv
  %13 = load i32, ptr %12, align 4, !tbaa !14
  %14 = ashr i32 %13, 1
  %.not19 = icmp ult i32 %13, 2
  br i1 %.not19, label %.critedge, label %15

15:                                               ; preds = %11
  %16 = load ptr, ptr %0, align 8, !tbaa !59
  %17 = getelementptr i8, ptr %16, i64 144
  %.val = load ptr, ptr %17, align 8, !tbaa !68
  %18 = sext i32 %14 to i64
  %19 = getelementptr inbounds i32, ptr %.val, i64 %18
  %20 = load i32, ptr %19, align 4, !tbaa !14
  %21 = add nsw i32 %20, 1
  store i32 %21, ptr %19, align 4, !tbaa !14
  %.not20 = icmp eq i32 %20, 0
  br i1 %.not20, label %22, label %41

22:                                               ; preds = %15
  %.val.i.i = load ptr, ptr %7, align 8, !tbaa !13
  %23 = getelementptr inbounds i32, ptr %.val.i.i, i64 %18
  %24 = load i32, ptr %23, align 4, !tbaa !14
  %25 = load ptr, ptr %8, align 8, !tbaa !80
  %.val.i.i.i = load i32, ptr %6, align 8, !tbaa !81
  %26 = ashr i32 %24, %.val.i.i.i
  %27 = sext i32 %26 to i64
  %28 = getelementptr inbounds ptr, ptr %25, i64 %27
  %29 = load ptr, ptr %28, align 8, !tbaa !82
  %.val4.i.i.i = load i32, ptr %9, align 4, !tbaa !84
  %30 = and i32 %.val4.i.i.i, %24
  %31 = sext i32 %30 to i64
  %32 = getelementptr inbounds i64, ptr %29, i64 %31
  %33 = getelementptr inbounds nuw i8, ptr %32, i64 4
  %.val.i = load i32, ptr %33, align 4, !tbaa !14
  %34 = and i32 %.val.i, 15
  %35 = icmp eq i32 %34, 1
  br i1 %35, label %Jf_CutIsTriv.exit, label %Jf_CutIsTriv.exit.thread

Jf_CutIsTriv.exit:                                ; preds = %22
  %36 = getelementptr inbounds nuw i8, ptr %32, i64 8
  %37 = load i32, ptr %36, align 4, !tbaa !14
  %38 = ashr i32 %37, 1
  %.not28 = icmp eq i32 %38, %14
  br i1 %.not28, label %41, label %Jf_CutIsTriv.exit.thread

Jf_CutIsTriv.exit.thread:                         ; preds = %22, %Jf_CutIsTriv.exit
  %39 = tail call i32 @Jf_CutAreaRef_rec(ptr noundef nonnull %0, ptr noundef nonnull %33)
  %40 = add nsw i32 %39, %.032
  br label %41

41:                                               ; preds = %Jf_CutIsTriv.exit.thread, %Jf_CutIsTriv.exit, %15
  %.1 = phi i32 [ %.032, %15 ], [ %.032, %Jf_CutIsTriv.exit ], [ %40, %Jf_CutIsTriv.exit.thread ]
  %42 = load ptr, ptr %10, align 8, !tbaa !111
  %43 = getelementptr inbounds nuw i8, ptr %42, i64 4
  %44 = load i32, ptr %43, align 4, !tbaa !7
  %45 = load i32, ptr %42, align 8, !tbaa !12
  %46 = icmp eq i32 %44, %45
  br i1 %46, label %47, label %.Vec_IntGrow.exit10_crit_edge.i

.Vec_IntGrow.exit10_crit_edge.i:                  ; preds = %41
  %.phi.trans.insert.i = getelementptr inbounds nuw i8, ptr %42, i64 8
  %.pre.i = load ptr, ptr %.phi.trans.insert.i, align 8, !tbaa !13
  br label %Vec_IntPush.exit

47:                                               ; preds = %41
  %48 = icmp slt i32 %44, 16
  br i1 %48, label %49, label %57

49:                                               ; preds = %47
  %50 = getelementptr inbounds nuw i8, ptr %42, i64 8
  %51 = load ptr, ptr %50, align 8, !tbaa !13
  %.not9.i.i = icmp eq ptr %51, null
  br i1 %.not9.i.i, label %54, label %52

52:                                               ; preds = %49
  %53 = tail call dereferenceable_or_null(64) ptr @realloc(ptr noundef nonnull %51, i64 noundef 64) #28
  br label %Vec_IntGrow.exit.i

54:                                               ; preds = %49
  %55 = tail call noalias dereferenceable_or_null(64) ptr @malloc(i64 noundef 64) #29
  br label %Vec_IntGrow.exit.i

Vec_IntGrow.exit.i:                               ; preds = %54, %52
  %56 = phi ptr [ %53, %52 ], [ %55, %54 ]
  store ptr %56, ptr %50, align 8, !tbaa !13
  store i32 16, ptr %42, align 8, !tbaa !12
  br label %Vec_IntPush.exit

57:                                               ; preds = %47
  %58 = shl nuw nsw i32 %44, 1
  %59 = getelementptr inbounds nuw i8, ptr %42, i64 8
  %60 = load ptr, ptr %59, align 8, !tbaa !13
  %.not9.i9.i = icmp eq ptr %60, null
  %61 = zext nneg i32 %58 to i64
  %62 = shl nuw nsw i64 %61, 2
  br i1 %.not9.i9.i, label %65, label %63

63:                                               ; preds = %57
  %64 = tail call ptr @realloc(ptr noundef nonnull %60, i64 noundef %62) #28
  br label %67

65:                                               ; preds = %57
  %66 = tail call noalias ptr @malloc(i64 noundef %62) #29
  br label %67

67:                                               ; preds = %65, %63
  %68 = phi ptr [ %64, %63 ], [ %66, %65 ]
  store ptr %68, ptr %59, align 8, !tbaa !13
  store i32 %58, ptr %42, align 8, !tbaa !12
  br label %Vec_IntPush.exit

Vec_IntPush.exit:                                 ; preds = %.Vec_IntGrow.exit10_crit_edge.i, %Vec_IntGrow.exit.i, %67
  %69 = phi ptr [ %.pre.i, %.Vec_IntGrow.exit10_crit_edge.i ], [ %68, %67 ], [ %56, %Vec_IntGrow.exit.i ]
  %70 = load i32, ptr %43, align 4, !tbaa !7
  %71 = add nsw i32 %70, 1
  store i32 %71, ptr %43, align 4, !tbaa !7
  %72 = sext i32 %70 to i64
  %73 = getelementptr inbounds i32, ptr %69, i64 %72
  store i32 %14, ptr %73, align 4, !tbaa !14
  %indvars.iv.next = add nuw nsw i64 %indvars.iv, 1
  %.val22 = load i32, ptr %1, align 4, !tbaa !14
  %74 = and i32 %.val22, 15
  %75 = zext nneg i32 %74 to i64
  %.not.not = icmp samesign ult i64 %indvars.iv, %75
  br i1 %.not.not, label %11, label %.critedge, !llvm.loop !141

.critedge:                                        ; preds = %11, %Vec_IntPush.exit, %2
  %.0.lcssa = phi i32 [ %4, %2 ], [ %.1, %Vec_IntPush.exit ], [ %.032, %11 ]
  ret i32 %.0.lcssa
}